SF:C:\Users\mathm\Documents\Projects\Tuff\src\lexer.rs
FN:2,_RNvNtCshskMjqXiM1U_4tuff5lexer8tokenize
FNDA:244,_RNvNtCshskMjqXiM1U_4tuff5lexer8tokenize
FNF:1
FNH:1
DA:2,244
DA:3,244
DA:4,244
DA:6,4547
DA:7,4303
DA:8,1693
DA:9,2610
DA:10,16
DA:11,16
DA:12,16
DA:13,16
DA:14,2594
DA:15,61
DA:16,61
DA:17,61
DA:18,61
DA:19,1453
DA:20,2533
DA:22,1080
DA:23,1080
DA:24,1080
DA:25,1453
DA:26,2
DA:27,2
DA:28,2
DA:29,2
DA:30,1451
DA:31,2
DA:32,2
DA:33,2
DA:34,2
DA:35,1449
DA:36,8
DA:37,8
DA:38,1441
DA:39,4
DA:40,4
DA:41,4
DA:42,4
DA:43,1437
DA:44,4
DA:45,4
DA:46,4
DA:47,4
DA:48,1433
DA:49,16
DA:50,16
DA:51,16
DA:52,16
DA:53,1417
DA:54,14
DA:55,12
DA:56,10
DA:57,10
DA:58,10
DA:59,1407
DA:60,952
DA:61,4
DA:62,2
DA:64,459
DA:65,1046
DA:66,995
DA:67,587
DA:68,587
DA:69,587
DA:70,408
DA:74,566
DA:75,513
DA:76,107
DA:77,107
DA:78,107
DA:79,406
DA:83,459
DA:84,948
DA:85,946
DA:86,3258
DA:87,3146
DA:88,2312
DA:89,2312
DA:90,2312
DA:91,834
DA:94,946
DA:95,2
DA:96,2
DA:97,2
DA:100,244
DA:101,244
BRF:0
BRH:0
LF:87
LH:87
end_of_record
SF:C:\Users\mathm\Documents\Projects\Tuff\src\main.rs
FN:11,_RNvCshskMjqXiM1U_4tuff4main
FNDA:0,_RNvCshskMjqXiM1U_4tuff4main
FNF:1
FNH:0
DA:11,0
DA:14,0
DA:16,0
DA:18,0
DA:19,0
DA:20,0
DA:21,0
DA:22,0
DA:23,0
DA:24,0
DA:25,0
DA:26,0
DA:29,0
DA:32,0
BRF:0
BRH:0
LF:14
LH:0
end_of_record
SF:C:\Users\mathm\Documents\Projects\Tuff\src\parser.rs
FN:59,_RNCNvNtCshskMjqXiM1U_4tuff6parser7execute0B5_
FN:66,_RNCNvNtCshskMjqXiM1U_4tuff6parser7executes0_0B5_
FN:73,_RNCNvNtCshskMjqXiM1U_4tuff6parser7executes1_0B5_
FN:81,_RNCNvNtCshskMjqXiM1U_4tuff6parser7executes2_0B5_
FN:64,_RNCNvNtCshskMjqXiM1U_4tuff6parser7executes_0B5_
FN:15,_RNCNvNtCshskMjqXiM1U_4tuff6parser9interpret0B5_
FN:41,_RNvNtCshskMjqXiM1U_4tuff6parser11source_hash
FN:29,_RNvNtCshskMjqXiM1U_4tuff6parser14mismatch_error
FN:49,_RNvNtCshskMjqXiM1U_4tuff6parser18compilation_failed
FN:18,_RNvNtCshskMjqXiM1U_4tuff6parser21interpret_and_execute
FN:36,_RNvNtCshskMjqXiM1U_4tuff6parser7compile
FN:55,_RNvNtCshskMjqXiM1U_4tuff6parser7execute
FN:7,_RNvNtCshskMjqXiM1U_4tuff6parser9interpret
FNDA:0,_RNCNvNtCshskMjqXiM1U_4tuff6parser7execute0B5_
FNDA:0,_RNCNvNtCshskMjqXiM1U_4tuff6parser7executes0_0B5_
FNDA:0,_RNCNvNtCshskMjqXiM1U_4tuff6parser7executes1_0B5_
FNDA:0,_RNCNvNtCshskMjqXiM1U_4tuff6parser7executes2_0B5_
FNDA:0,_RNCNvNtCshskMjqXiM1U_4tuff6parser7executes_0B5_
FNDA:42,_RNCNvNtCshskMjqXiM1U_4tuff6parser9interpret0B5_
FNDA:101,_RNvNtCshskMjqXiM1U_4tuff6parser11source_hash
FNDA:0,_RNvNtCshskMjqXiM1U_4tuff6parser14mismatch_error
FNDA:0,_RNvNtCshskMjqXiM1U_4tuff6parser18compilation_failed
FNDA:143,_RNvNtCshskMjqXiM1U_4tuff6parser21interpret_and_execute
FNDA:101,_RNvNtCshskMjqXiM1U_4tuff6parser7compile
FNDA:101,_RNvNtCshskMjqXiM1U_4tuff6parser7execute
FNDA:244,_RNvNtCshskMjqXiM1U_4tuff6parser9interpret
FNF:13
FNH:6
DA:7,244
DA:9,244
DA:10,244
DA:11,4
DA:12,240
DA:13,240
DA:14,240
DA:15,240
DA:16,244
DA:18,143
DA:19,143
DA:20,101
DA:21,101
DA:22,101
DA:23,0
DA:25,0
DA:26,143
DA:29,0
DA:30,0
DA:31,0
DA:32,0
DA:33,0
DA:34,0
DA:36,101
DA:37,101
DA:38,101
DA:39,101
DA:41,101
DA:42,101
DA:43,101
DA:44,101
DA:45,101
DA:46,101
DA:49,0
DA:50,0
DA:51,0
DA:52,0
DA:55,101
DA:56,101
DA:57,101
DA:58,101
DA:59,101
DA:61,101
DA:62,101
DA:63,101
DA:64,101
DA:65,101
DA:66,101
DA:68,101
DA:69,101
DA:70,101
DA:71,101
DA:72,101
DA:73,101
DA:75,101
DA:76,0
DA:77,101
DA:79,101
DA:80,101
DA:81,101
DA:83,101
DA:86,101
DA:87,101
DA:89,101
DA:90,101
BRF:0
BRH:0
LF:71
LH:53
end_of_record
SF:C:\Users\mathm\Documents\Projects\Tuff\src\parser_declarations.rs
FN:196,_RNCNCNvNtCshskMjqXiM1U_4tuff19parser_declarations19parse_let_statements_00B7_
FN:171,_RNCNvNtCshskMjqXiM1U_4tuff19parser_declarations19parse_let_statement0B5_
FN:208,_RNCNvNtCshskMjqXiM1U_4tuff19parser_declarations19parse_let_statements0_0B5_
FN:195,_RNCNvNtCshskMjqXiM1U_4tuff19parser_declarations19parse_let_statements_0B5_
FN:6,_RNvNtCshskMjqXiM1U_4tuff19parser_declarations16parse_param_type
FN:21,_RNvNtCshskMjqXiM1U_4tuff19parser_declarations18parse_fn_statement
FN:137,_RNvNtCshskMjqXiM1U_4tuff19parser_declarations19parse_let_statement
FNDA:3,_RNCNCNvNtCshskMjqXiM1U_4tuff19parser_declarations19parse_let_statements_00B7_
FNDA:145,_RNCNvNtCshskMjqXiM1U_4tuff19parser_declarations19parse_let_statement0B5_
FNDA:18,_RNCNvNtCshskMjqXiM1U_4tuff19parser_declarations19parse_let_statements0_0B5_
FNDA:133,_RNCNvNtCshskMjqXiM1U_4tuff19parser_declarations19parse_let_statements_0B5_
FNDA:16,_RNvNtCshskMjqXiM1U_4tuff19parser_declarations16parse_param_type
FNDA:524,_RNvNtCshskMjqXiM1U_4tuff19parser_declarations18parse_fn_statement
FNDA:483,_RNvNtCshskMjqXiM1U_4tuff19parser_declarations19parse_let_statement
FNF:7
FNH:7
DA:6,16
DA:7,16
DA:8,12
DA:9,12
DA:10,0
DA:11,12
DA:12,12
DA:13,12
DA:14,12
DA:16,4
DA:18,16
DA:21,524
DA:22,524
DA:23,524
DA:24,524
DA:25,524
DA:26,524
DA:27,483
DA:28,41
DA:29,41
DA:32,41
DA:33,41
DA:35,0
DA:37,41
DA:40,41
DA:41,0
DA:42,41
DA:43,41
DA:46,41
DA:47,41
DA:48,41
DA:50,16
DA:51,16
DA:52,16
DA:53,16
DA:54,16
DA:55,16
DA:56,4
DA:57,4
DA:58,12
DA:61,29
DA:64,41
DA:65,0
DA:66,41
DA:67,41
DA:70,41
DA:71,41
DA:72,7
DA:73,7
DA:74,0
DA:75,7
DA:76,7
DA:77,7
DA:78,34
DA:81,41
DA:82,1
DA:83,40
DA:84,40
DA:87,40
DA:90,40
DA:91,16
DA:92,16
DA:93,16
DA:94,16
DA:98,40
DA:101,40
DA:102,40
DA:103,6
DA:104,6
DA:105,1
DA:106,5
DA:107,0
DA:108,34
DA:109,39
DA:112,39
DA:113,16
DA:114,16
DA:117,39
DA:118,39
DA:119,39
DA:120,39
DA:121,39
DA:122,39
DA:123,39
DA:124,39
DA:125,39
DA:126,39
DA:127,39
DA:128,39
DA:129,39
DA:130,39
DA:131,39
DA:133,39
DA:134,524
DA:137,483
DA:138,483
DA:139,483
DA:140,483
DA:141,483
DA:142,483
DA:143,335
DA:144,148
DA:145,148
DA:146,148
DA:147,148
DA:148,33
DA:149,115
DA:150,148
DA:151,1
DA:152,147
DA:153,147
DA:154,147
DA:155,147
DA:156,19
DA:157,19
DA:158,1
DA:159,18
DA:160,18
DA:162,128
DA:164,146
DA:165,18
DA:166,18
DA:167,146
DA:168,1
DA:169,145
DA:170,145
DA:171,145
DA:174,145
DA:175,4
DA:176,4
DA:177,4
DA:178,4
DA:179,4
DA:180,4
DA:181,4
DA:182,4
DA:183,4
DA:184,4
DA:185,141
DA:187,141
DA:190,141
DA:191,8
DA:192,8
DA:195,133
DA:196,133
DA:198,3
DA:200,3
DA:201,4
DA:202,7
DA:203,133
DA:205,133
DA:206,18
DA:207,18
DA:208,18
DA:209,18
DA:210,5
DA:211,115
DA:213,128
DA:214,7
DA:215,7
DA:216,7
DA:217,7
DA:218,7
DA:219,7
DA:220,7
DA:221,7
DA:222,7
DA:223,7
DA:224,7
DA:225,7
DA:226,7
DA:227,7
DA:228,7
DA:230,121
DA:231,121
DA:232,121
DA:233,121
DA:234,121
DA:235,0
DA:237,128
DA:238,128
DA:240,483
BRF:0
BRH:0
LF:186
LH:179
end_of_record
SF:C:\Users\mathm\Documents\Projects\Tuff\src\parser_expressions.rs
FN:5,_RNCNvNtCshskMjqXiM1U_4tuff18parser_expressions11merge_width0B5_
FN:336,_RNCNvNtCshskMjqXiM1U_4tuff18parser_expressions13parse_primary0B5_
FN:415,_RNCNvNtCshskMjqXiM1U_4tuff18parser_expressions13parse_primarys1_0B5_
FN:420,_RNCNvNtCshskMjqXiM1U_4tuff18parser_expressions13parse_primarys2_0B5_
FN:91,_RNCNvNtCshskMjqXiM1U_4tuff18parser_expressions16parse_comparison0B5_
FN:146,_RNvNtCshskMjqXiM1U_4tuff18parser_expressions10parse_term
FN:3,_RNvNtCshskMjqXiM1U_4tuff18parser_expressions11merge_width
FN:197,_RNvNtCshskMjqXiM1U_4tuff18parser_expressions12parse_factor
FN:326,_RNvNtCshskMjqXiM1U_4tuff18parser_expressions13parse_primary
FN:11,_RNvNtCshskMjqXiM1U_4tuff18parser_expressions14bind_fn_params
FN:120,_RNvNtCshskMjqXiM1U_4tuff18parser_expressions14parse_additive
FN:64,_RNvNtCshskMjqXiM1U_4tuff18parser_expressions16parse_comparison
FN:47,_RNvNtCshskMjqXiM1U_4tuff18parser_expressions16parse_expression
FN:177,_RNvNtCshskMjqXiM1U_4tuff18parser_expressions20parse_array_elements
FN:27,_RNvNtCshskMjqXiM1U_4tuff18parser_expressions23check_param_type_compat
FN:102,_RNvNtCshskMjqXiM1U_4tuff18parser_expressions9parse_and
FNDA:16,_RNCNvNtCshskMjqXiM1U_4tuff18parser_expressions11merge_width0B5_
FNDA:50,_RNCNvNtCshskMjqXiM1U_4tuff18parser_expressions13parse_primary0B5_
FNDA:187,_RNCNvNtCshskMjqXiM1U_4tuff18parser_expressions13parse_primarys1_0B5_
FNDA:179,_RNCNvNtCshskMjqXiM1U_4tuff18parser_expressions13parse_primarys2_0B5_
FNDA:8,_RNCNvNtCshskMjqXiM1U_4tuff18parser_expressions16parse_comparison0B5_
FNDA:2935,_RNvNtCshskMjqXiM1U_4tuff18parser_expressions10parse_term
FNDA:100,_RNvNtCshskMjqXiM1U_4tuff18parser_expressions11merge_width
FNDA:2966,_RNvNtCshskMjqXiM1U_4tuff18parser_expressions12parse_factor
FNDA:2792,_RNvNtCshskMjqXiM1U_4tuff18parser_expressions13parse_primary
FNDA:37,_RNvNtCshskMjqXiM1U_4tuff18parser_expressions14bind_fn_params
FNDA:2864,_RNvNtCshskMjqXiM1U_4tuff18parser_expressions14parse_additive
FNDA:2838,_RNvNtCshskMjqXiM1U_4tuff18parser_expressions16parse_comparison
FNDA:2830,_RNvNtCshskMjqXiM1U_4tuff18parser_expressions16parse_expression
FNDA:9,_RNvNtCshskMjqXiM1U_4tuff18parser_expressions20parse_array_elements
FNDA:16,_RNvNtCshskMjqXiM1U_4tuff18parser_expressions23check_param_type_compat
FNDA:2834,_RNvNtCshskMjqXiM1U_4tuff18parser_expressions9parse_and
FNF:16
FNH:16
DA:3,100
DA:5,100
DA:6,100
DA:8,100
DA:11,37
DA:12,37
DA:13,37
DA:14,14
DA:15,14
DA:16,14
DA:17,14
DA:18,14
DA:19,14
DA:20,0
DA:22,37
DA:23,37
DA:27,16
DA:28,16
DA:29,16
DA:30,16
DA:31,16
DA:33,2
DA:35,2
DA:38,1
DA:40,1
DA:41,1
DA:43,10
DA:45,16
DA:47,2830
DA:48,2830
DA:49,2830
DA:50,2830
DA:51,2830
DA:52,2830
DA:54,2808
DA:55,4
DA:56,4
DA:57,4
DA:58,4
DA:61,2804
DA:62,2830
DA:64,2838
DA:65,2838
DA:66,2838
DA:67,2838
DA:68,2838
DA:69,2838
DA:71,2838
DA:72,26
DA:73,26
DA:74,26
DA:75,26
DA:76,10
DA:77,10
DA:78,8
DA:80,20
DA:82,6
DA:84,26
DA:88,2812
DA:89,8
DA:90,8
DA:91,8
DA:92,6
DA:94,2
DA:96,8
DA:97,2804
DA:99,2812
DA:100,2838
DA:102,2834
DA:103,2834
DA:104,2834
DA:105,2834
DA:106,2834
DA:107,2834
DA:109,2812
DA:110,4
DA:111,4
DA:113,4
DA:114,4
DA:117,2808
DA:118,2834
DA:120,2864
DA:121,2864
DA:122,2864
DA:123,2864
DA:124,2864
DA:125,2864
DA:127,2909
DA:128,75
DA:129,4
DA:130,71
DA:131,71
DA:132,71
DA:133,71
DA:134,70
DA:135,60
DA:137,10
DA:140,70
DA:143,2838
DA:144,2864
DA:146,2935
DA:147,2935
DA:148,2935
DA:149,2935
DA:150,2935
DA:151,2935
DA:153,2940
DA:155,35
DA:156,4
DA:157,31
DA:158,31
DA:159,31
DA:160,31
DA:161,30
DA:162,24
DA:163,6
DA:164,4
DA:166,2
DA:169,30
DA:172,2909
DA:173,2935
DA:177,9
DA:178,9
DA:179,9
DA:180,9
DA:181,9
DA:182,9
DA:183,9
DA:185,19
DA:186,19
DA:187,19
DA:188,12
DA:189,12
DA:190,7
DA:193,2
DA:194,9
DA:195,9
DA:197,2966
DA:198,2966
DA:199,2966
DA:200,2966
DA:201,2966
DA:202,2966
DA:203,2
DA:204,2964
DA:206,2964
DA:208,2964
DA:209,2964
DA:210,13
DA:211,13
DA:212,12
DA:213,12
DA:214,12
DA:215,12
DA:217,2951
DA:218,87
DA:219,87
DA:220,85
DA:221,58
DA:222,58
DA:224,30
DA:225,4
DA:226,4
DA:227,26
DA:228,24
DA:229,24
DA:230,26
DA:231,1
DA:232,85
DA:234,2864
DA:235,37
DA:236,37
DA:238,2827
DA:239,14
DA:240,14
DA:242,2813
DA:243,2
DA:244,2
DA:245,2
DA:246,2
DA:247,2
DA:248,2
DA:249,2
DA:250,2
DA:252,2811
DA:253,14
DA:254,14
DA:255,1
DA:256,13
DA:257,13
DA:258,13
DA:260,13
DA:261,1
DA:262,12
DA:263,12
DA:264,12
DA:265,1
DA:266,11
DA:267,11
DA:269,11
DA:271,28
DA:272,8
DA:273,20
DA:274,20
DA:276,20
DA:277,20
DA:278,12
DA:279,11
DA:280,1
DA:281,10
DA:282,10
DA:283,10
DA:284,10
DA:285,4
DA:286,6
DA:288,8
DA:289,8
DA:290,1
DA:291,7
DA:292,7
DA:293,7
DA:294,7
DA:295,3
DA:296,4
DA:299,17
DA:302,8
DA:303,1
DA:304,7
DA:305,7
DA:307,7
DA:308,6
DA:309,1
DA:312,2797
DA:313,5
DA:314,5
DA:315,5
DA:316,1
DA:317,4
DA:318,4
DA:320,4
DA:322,2792
DA:324,2966
DA:326,2792
DA:327,2792
DA:328,2792
DA:329,2792
DA:330,2792
DA:331,2792
DA:334,2792
DA:335,2542
DA:336,2542
DA:337,2542
DA:338,6
DA:339,2536
DA:340,2536
DA:341,250
DA:342,39
DA:343,39
DA:346,39
DA:347,39
DA:348,39
DA:351,39
DA:352,39
DA:354,16
DA:356,16
DA:357,16
DA:358,14
DA:359,14
DA:360,4
DA:361,4
DA:362,10
DA:365,27
DA:367,37
DA:368,37
DA:369,37
DA:371,37
DA:375,37
DA:376,37
DA:378,37
DA:379,37
DA:381,37
DA:382,14
DA:383,14
DA:384,37
DA:385,211
DA:386,204
DA:389,192
DA:390,192
DA:393,192
DA:394,5
DA:395,5
DA:396,5
DA:397,1
DA:398,4
DA:399,4
DA:400,4
DA:401,4
DA:402,3
DA:403,3
DA:404,2
DA:406,1
DA:408,2
DA:410,1
DA:412,2
DA:413,187
DA:415,187
DA:416,8
DA:417,179
DA:418,179
DA:419,179
DA:420,179
DA:421,179
DA:422,179
DA:423,179
DA:424,19
DA:425,12
DA:426,12
DA:429,12
DA:430,12
DA:431,12
DA:432,12
DA:433,12
DA:435,7
DA:437,2792
BRF:0
BRH:0
LF:329
LH:328
end_of_record
SF:C:\Users\mathm\Documents\Projects\Tuff\src\parser_statements.rs
FN:243,_RNCNvNtCshskMjqXiM1U_4tuff17parser_statements18skip_to_terminator0B5_
FN:256,_RNCNvNtCshskMjqXiM1U_4tuff17parser_statements28parse_statement_list_with_tw0B5_
FN:332,_RNvNtCshskMjqXiM1U_4tuff17parser_statements11parse_block
FN:356,_RNvNtCshskMjqXiM1U_4tuff17parser_statements13do_assignment
FN:21,_RNvNtCshskMjqXiM1U_4tuff17parser_statements13parse_if_body
FN:346,_RNvNtCshskMjqXiM1U_4tuff17parser_statements16parse_statements
FN:5,_RNvNtCshskMjqXiM1U_4tuff17parser_statements18parse_if_condition
FN:63,_RNvNtCshskMjqXiM1U_4tuff17parser_statements18parse_if_statement
FN:242,_RNvNtCshskMjqXiM1U_4tuff17parser_statements18skip_to_terminator
FN:98,_RNvNtCshskMjqXiM1U_4tuff17parser_statements19eval_loop_body_stmt
FN:91,_RNvNtCshskMjqXiM1U_4tuff17parser_statements19is_assignment_start
FN:121,_RNvNtCshskMjqXiM1U_4tuff17parser_statements19parse_for_statement
FN:199,_RNvNtCshskMjqXiM1U_4tuff17parser_statements21parse_while_statement
FN:248,_RNvNtCshskMjqXiM1U_4tuff17parser_statements28parse_statement_list_with_tw
FNDA:126,_RNCNvNtCshskMjqXiM1U_4tuff17parser_statements18skip_to_terminator0B5_
FNDA:161,_RNCNvNtCshskMjqXiM1U_4tuff17parser_statements28parse_statement_list_with_tw0B5_
FNDA:115,_RNvNtCshskMjqXiM1U_4tuff17parser_statements11parse_block
FNDA:1091,_RNvNtCshskMjqXiM1U_4tuff17parser_statements13do_assignment
FNDA:32,_RNvNtCshskMjqXiM1U_4tuff17parser_statements13parse_if_body
FNDA:240,_RNvNtCshskMjqXiM1U_4tuff17parser_statements16parse_statements
FNDA:1077,_RNvNtCshskMjqXiM1U_4tuff17parser_statements18parse_if_condition
FNDA:290,_RNvNtCshskMjqXiM1U_4tuff17parser_statements18parse_if_statement
FNDA:36,_RNvNtCshskMjqXiM1U_4tuff17parser_statements18skip_to_terminator
FNDA:1075,_RNvNtCshskMjqXiM1U_4tuff17parser_statements19eval_loop_body_stmt
FNDA:1400,_RNvNtCshskMjqXiM1U_4tuff17parser_statements19is_assignment_start
FNDA:307,_RNvNtCshskMjqXiM1U_4tuff17parser_statements19parse_for_statement
FNDA:274,_RNvNtCshskMjqXiM1U_4tuff17parser_statements21parse_while_statement
FNDA:355,_RNvNtCshskMjqXiM1U_4tuff17parser_statements28parse_statement_list_with_tw
FNF:14
FNH:14
DA:5,1077
DA:6,1077
DA:7,1077
DA:8,1077
DA:9,1077
DA:10,1077
DA:11,1077
DA:12,1077
DA:13,1077
DA:14,1077
DA:15,1077
DA:16,1077
DA:17,1077
DA:18,1077
DA:21,32
DA:22,32
DA:23,32
DA:24,32
DA:25,32
DA:26,32
DA:27,18
DA:28,18
DA:29,18
DA:31,10
DA:32,10
DA:33,10
DA:36,12
DA:37,4
DA:38,4
DA:39,8
DA:40,8
DA:41,8
DA:43,18
DA:44,14
DA:45,4
DA:46,4
DA:47,4
DA:48,4
DA:49,10
DA:51,4
DA:52,4
DA:53,4
DA:54,4
DA:56,6
DA:57,6
DA:58,6
DA:60,32
DA:63,290
DA:64,290
DA:65,290
DA:66,290
DA:67,290
DA:68,290
DA:69,264
DA:70,26
DA:71,26
DA:72,26
DA:74,26
DA:75,26
DA:76,14
DA:77,12
DA:79,12
DA:80,6
DA:81,6
DA:82,6
DA:83,2
DA:84,4
DA:85,6
DA:86,6
DA:88,10
DA:89,290
DA:91,1400
DA:92,1400
DA:93,1400
DA:94,1212
DA:95,1158
DA:96,1400
DA:98,1075
DA:99,1075
DA:100,1075
DA:101,1075
DA:102,1075
DA:103,1075
DA:104,10
DA:105,10
DA:106,10
DA:107,10
DA:108,10
DA:109,1065
DA:110,1051
DA:111,1051
DA:112,1051
DA:113,1051
DA:115,14
DA:116,14
DA:118,1075
DA:119,1075
DA:121,307
DA:122,307
DA:123,307
DA:124,307
DA:125,307
DA:126,307
DA:127,290
DA:128,17
DA:130,17
DA:131,17
DA:132,1
DA:133,16
DA:134,16
DA:136,16
DA:137,16
DA:139,16
DA:140,1
DA:141,15
DA:142,15
DA:143,15
DA:145,5
DA:146,5
DA:147,5
DA:150,10
DA:151,10
DA:152,2
DA:153,8
DA:154,8
DA:155,8
DA:156,8
DA:160,13
DA:161,1
DA:162,12
DA:163,12
DA:165,12
DA:168,12
DA:169,12
DA:170,12
DA:172,12
DA:173,12
DA:174,12
DA:177,12
DA:178,12
DA:179,2
DA:180,10
DA:182,10
DA:183,20
DA:185,20
DA:186,20
DA:187,20
DA:190,20
DA:191,20
DA:192,20
DA:195,10
DA:196,10
DA:197,307
DA:199,274
DA:200,274
DA:201,274
DA:202,274
DA:203,274
DA:204,274
DA:205,267
DA:206,7
DA:208,7
DA:210,7
DA:211,7
DA:212,7
DA:213,7
DA:214,7
DA:217,7
DA:218,7
DA:219,1042
DA:220,1042
DA:222,1042
DA:223,6
DA:224,6
DA:225,1036
DA:228,1036
DA:229,1036
DA:230,1036
DA:233,7
DA:234,1
DA:235,6
DA:237,6
DA:238,6
DA:239,274
DA:242,36
DA:243,126
DA:244,90
DA:245,90
DA:246,36
DA:248,355
DA:249,355
DA:250,355
DA:251,355
DA:252,355
DA:253,355
DA:254,355
DA:256,799
DA:258,565
DA:259,7
DA:260,7
DA:261,7
DA:262,7
DA:263,7
DA:264,558
DA:266,558
DA:267,34
DA:268,34
DA:269,34
DA:270,34
DA:271,34
DA:272,524
DA:273,524
DA:274,39
DA:275,483
DA:276,483
DA:278,140
DA:279,8
DA:280,8
DA:281,8
DA:282,132
DA:283,132
DA:284,335
DA:286,335
DA:287,28
DA:288,28
DA:289,28
DA:290,26
DA:291,26
DA:292,307
DA:293,307
DA:294,10
DA:295,290
DA:296,290
DA:298,26
DA:300,264
DA:302,290
DA:303,16
DA:305,16
DA:306,16
DA:307,274
DA:308,274
DA:309,6
DA:310,267
DA:311,267
DA:312,16
DA:313,16
DA:314,251
DA:315,227
DA:318,227
DA:319,12
DA:320,12
DA:321,12
DA:322,215
DA:323,203
DA:324,203
DA:325,203
DA:329,277
DA:330,355
DA:332,115
DA:333,115
DA:334,115
DA:335,115
DA:336,115
DA:337,115
DA:338,115
DA:339,113
DA:340,79
DA:341,79
DA:342,79
DA:343,113
DA:344,115
DA:346,240
DA:347,240
DA:348,240
DA:349,240
DA:350,240
DA:351,240
DA:352,198
DA:353,240
DA:356,1091
DA:357,1091
DA:358,1091
DA:359,1091
DA:360,1091
DA:361,1091
DA:362,1091
DA:363,1091
DA:364,1091
DA:366,1091
DA:367,1091
DA:369,1091
DA:370,2
DA:371,1089
DA:372,1089
DA:373,1063
DA:375,26
DA:378,0
DA:383,0
DA:385,1089
DA:386,1091
BRF:0
BRH:0
LF:302
LH:300
end_of_record
SF:C:\Users\mathm\Documents\Projects\Tuff\src\scope.rs
FN:33,_RNvMNtCshskMjqXiM1U_4tuff5scopeNtB2_5Value20as_fn_ret_type_width
FN:151,_RNCNvMs0_NtCshskMjqXiM1U_4tuff5scopeNtB7_5Scope11get_fn_body0B9_
FN:124,_RNCNvMs0_NtCshskMjqXiM1U_4tuff5scopeNtB7_5Scope12contains_key0B9_
FN:170,_RNCNvMs0_NtCshskMjqXiM1U_4tuff5scopeNtB7_5Scope14find_frame_mut0B9_
FN:110,_RNCNvMs0_NtCshskMjqXiM1U_4tuff5scopeNtB7_5Scope3get0B9_
FN:115,_RNCNvMs0_NtCshskMjqXiM1U_4tuff5scopeNtB7_5Scope9get_range0B9_
FN:210,_RNCNvNtCshskMjqXiM1U_4tuff5scope10type_width0B5_
FN:288,_RNCNvNtCshskMjqXiM1U_4tuff5scope17try_is_type_check0B5_
FN:23,_RNvMNtCshskMjqXiM1U_4tuff5scopeNtB2_5Value6as_int
FN:150,_RNvMs0_NtCshskMjqXiM1U_4tuff5scopeNtB5_5Scope11get_fn_body
FN:134,_RNvMs0_NtCshskMjqXiM1U_4tuff5scopeNtB5_5Scope11is_returned
FN:123,_RNvMs0_NtCshskMjqXiM1U_4tuff5scopeNtB5_5Scope12contains_key
FN:174,_RNvMs0_NtCshskMjqXiM1U_4tuff5scopeNtB5_5Scope13insert_global
FN:144,_RNvMs0_NtCshskMjqXiM1U_4tuff5scopeNtB5_5Scope14clear_returned
FN:169,_RNvMs0_NtCshskMjqXiM1U_4tuff5scopeNtB5_5Scope14find_frame_mut
FN:164,_RNvMs0_NtCshskMjqXiM1U_4tuff5scopeNtB5_5Scope14last_frame_mut
FN:139,_RNvMs0_NtCshskMjqXiM1U_4tuff5scopeNtB5_5Scope16get_return_value
FN:181,_RNvMs0_NtCshskMjqXiM1U_4tuff5scopeNtB5_5Scope16has_global_frame
FN:128,_RNvMs0_NtCshskMjqXiM1U_4tuff5scopeNtB5_5Scope24mark_returned_with_value
FN:109,_RNvMs0_NtCshskMjqXiM1U_4tuff5scopeNtB5_5Scope3get
FN:88,_RNvMs0_NtCshskMjqXiM1U_4tuff5scopeNtB5_5Scope3new
FN:102,_RNvMs0_NtCshskMjqXiM1U_4tuff5scopeNtB5_5Scope3pop
FN:97,_RNvMs0_NtCshskMjqXiM1U_4tuff5scopeNtB5_5Scope4push
FN:114,_RNvMs0_NtCshskMjqXiM1U_4tuff5scopeNtB5_5Scope9get_range
FN:221,_RNvNtCshskMjqXiM1U_4tuff5scope10check_type
FN:256,_RNvNtCshskMjqXiM1U_4tuff5scope10infer_type
FN:207,_RNvNtCshskMjqXiM1U_4tuff5scope10type_width
FN:186,_RNvNtCshskMjqXiM1U_4tuff5scope11extract_int
FN:197,_RNvNtCshskMjqXiM1U_4tuff5scope14extract_suffix
FN:275,_RNvNtCshskMjqXiM1U_4tuff5scope17consume_semicolon
FN:283,_RNvNtCshskMjqXiM1U_4tuff5scope17try_is_type_check
FN:55,_RNvXs_NtCshskMjqXiM1U_4tuff5scopeNtB4_10ParseErrorNtNtCs25LAAAjbyGa_4core3fmt7Display3fmt
FNDA:0,_RNvMNtCshskMjqXiM1U_4tuff5scopeNtB2_5Value20as_fn_ret_type_width
FNDA:341,_RNCNvMs0_NtCshskMjqXiM1U_4tuff5scopeNtB7_5Scope11get_fn_body0B9_
FNDA:1730,_RNCNvMs0_NtCshskMjqXiM1U_4tuff5scopeNtB7_5Scope12contains_key0B9_
FNDA:1113,_RNCNvMs0_NtCshskMjqXiM1U_4tuff5scopeNtB7_5Scope14find_frame_mut0B9_
FNDA:542,_RNCNvMs0_NtCshskMjqXiM1U_4tuff5scopeNtB7_5Scope3get0B9_
FNDA:20,_RNCNvMs0_NtCshskMjqXiM1U_4tuff5scopeNtB7_5Scope9get_range0B9_
FNDA:269,_RNCNvNtCshskMjqXiM1U_4tuff5scope10type_width0B5_
FNDA:12,_RNCNvNtCshskMjqXiM1U_4tuff5scope17try_is_type_check0B5_
FNDA:1242,_RNvMNtCshskMjqXiM1U_4tuff5scopeNtB2_5Value6as_int
FNDA:289,_RNvMs0_NtCshskMjqXiM1U_4tuff5scopeNtB5_5Scope11get_fn_body
FNDA:464,_RNvMs0_NtCshskMjqXiM1U_4tuff5scopeNtB5_5Scope11is_returned
FNDA:1630,_RNvMs0_NtCshskMjqXiM1U_4tuff5scopeNtB5_5Scope12contains_key
FNDA:39,_RNvMs0_NtCshskMjqXiM1U_4tuff5scopeNtB5_5Scope13insert_global
FNDA:280,_RNvMs0_NtCshskMjqXiM1U_4tuff5scopeNtB5_5Scope14clear_returned
FNDA:1091,_RNvMs0_NtCshskMjqXiM1U_4tuff5scopeNtB5_5Scope14find_frame_mut
FNDA:194,_RNvMs0_NtCshskMjqXiM1U_4tuff5scopeNtB5_5Scope14last_frame_mut
FNDA:20,_RNvMs0_NtCshskMjqXiM1U_4tuff5scopeNtB5_5Scope16get_return_value
FNDA:39,_RNvMs0_NtCshskMjqXiM1U_4tuff5scopeNtB5_5Scope16has_global_frame
FNDA:60,_RNvMs0_NtCshskMjqXiM1U_4tuff5scopeNtB5_5Scope24mark_returned_with_value
FNDA:508,_RNvMs0_NtCshskMjqXiM1U_4tuff5scopeNtB5_5Scope3get
FNDA:240,_RNvMs0_NtCshskMjqXiM1U_4tuff5scopeNtB5_5Scope3new
FNDA:109,_RNvMs0_NtCshskMjqXiM1U_4tuff5scopeNtB5_5Scope3pop
FNDA:145,_RNvMs0_NtCshskMjqXiM1U_4tuff5scopeNtB5_5Scope4push
FNDA:20,_RNvMs0_NtCshskMjqXiM1U_4tuff5scopeNtB5_5Scope9get_range
FNDA:18,_RNvNtCshskMjqXiM1U_4tuff5scope10check_type
FNDA:121,_RNvNtCshskMjqXiM1U_4tuff5scope10infer_type
FNDA:140,_RNvNtCshskMjqXiM1U_4tuff5scope10type_width
FNDA:2796,_RNvNtCshskMjqXiM1U_4tuff5scope11extract_int
FNDA:2645,_RNvNtCshskMjqXiM1U_4tuff5scope14extract_suffix
FNDA:1354,_RNvNtCshskMjqXiM1U_4tuff5scope17consume_semicolon
FNDA:2729,_RNvNtCshskMjqXiM1U_4tuff5scope17try_is_type_check
FNDA:42,_RNvXs_NtCshskMjqXiM1U_4tuff5scopeNtB4_10ParseErrorNtNtCs25LAAAjbyGa_4core3fmt7Display3fmt
FNF:32
FNH:31
DA:23,1242
DA:24,1242
DA:25,1242
DA:26,0
DA:28,1242
DA:33,0
DA:34,0
DA:36,0
DA:38,0
DA:39,0
DA:41,0
DA:55,42
DA:56,42
DA:57,28
DA:58,1
DA:59,1
DA:60,2
DA:61,2
DA:63,7
DA:64,7
DA:67,3
DA:70,42
DA:88,240
DA:89,240
DA:90,240
DA:91,240
DA:92,240
DA:93,240
DA:94,240
DA:97,145
DA:98,145
DA:99,145
DA:102,109
DA:103,109
DA:104,109
DA:105,109
DA:106,109
DA:109,508
DA:110,542
DA:111,508
DA:114,20
DA:115,20
DA:116,11
DA:117,10
DA:118,1
DA:120,20
DA:123,1630
DA:124,1730
DA:125,1630
DA:128,60
DA:129,60
DA:130,60
DA:131,60
DA:134,464
DA:135,464
DA:136,464
DA:139,20
DA:140,20
DA:141,20
DA:144,280
DA:145,280
DA:146,280
DA:147,280
DA:150,289
DA:151,341
DA:152,282
DA:154,78
DA:155,78
DA:156,78
DA:158,78
DA:159,204
DA:161,289
DA:164,194
DA:165,194
DA:166,194
DA:169,1091
DA:170,1113
DA:171,1091
DA:174,39
DA:175,39
DA:176,39
DA:177,39
DA:178,39
DA:181,39
DA:182,39
DA:183,39
DA:186,2796
DA:187,2796
DA:188,3147
DA:189,3147
DA:190,50
DA:191,50
DA:192,3097
DA:194,2796
DA:195,2796
DA:197,2645
DA:198,2880
DA:199,2880
DA:200,68
DA:201,2812
DA:203,2577
DA:204,2645
DA:207,140
DA:208,140
DA:209,140
DA:210,269
DA:211,140
DA:212,140
DA:213,10
DA:215,130
DA:217,140
DA:221,18
DA:222,18
DA:223,18
DA:224,18
DA:225,18
DA:226,18
DA:228,18
DA:229,7
DA:230,3
DA:232,4
DA:234,11
DA:236,11
DA:237,11
DA:238,11
DA:239,7
DA:240,1
DA:242,6
DA:244,4
DA:245,4
DA:246,1
DA:247,3
DA:249,0
DA:251,3
DA:252,18
DA:256,121
DA:257,121
DA:258,13
DA:259,13
DA:260,0
DA:261,108
DA:262,108
DA:264,108
DA:265,16
DA:266,92
DA:267,92
DA:268,11
DA:269,81
DA:270,0
DA:271,81
DA:272,121
DA:275,1354
DA:276,1354
DA:277,1317
DA:278,1317
DA:279,1354
DA:283,2729
DA:284,2729
DA:285,14
DA:286,14
DA:287,14
DA:288,14
DA:289,8
DA:291,6
DA:294,2715
DA:296,2729
BRF:0
BRH:0
LF:173
LH:163
end_of_record
SF:C:\Users\mathm\Documents\Projects\Tuff\src\tests_control_flow.rs
FN:61,_RNvNtCshskMjqXiM1U_4tuff18tests_control_flows_19test_for_loop_basic
FN:283,_RNvNtCshskMjqXiM1U_4tuff18tests_control_flows_19test_yield_in_block
FN:44,_RNvNtCshskMjqXiM1U_4tuff18tests_control_flows_21test_while_block_body
FN:33,_RNvNtCshskMjqXiM1U_4tuff18tests_control_flows_21test_while_loop_basic
FN:232,_RNvNtCshskMjqXiM1U_4tuff18tests_control_flows_22test_fn_with_one_param
FN:211,_RNvNtCshskMjqXiM1U_4tuff18tests_control_flows_23test_fn_define_and_call
FN:69,_RNvNtCshskMjqXiM1U_4tuff18tests_control_flows_24test_for_loop_block_body
FN:4,_RNvNtCshskMjqXiM1U_4tuff18tests_control_flows_24test_if_else_with_blocks
FN:22,_RNvNtCshskMjqXiM1U_4tuff18tests_control_flows_28test_compound_add_assignment
FN:216,_RNvNtCshskMjqXiM1U_4tuff18tests_control_flows_28test_fn_with_params_and_args
FN:110,_RNvNtCshskMjqXiM1U_4tuff18tests_control_flows_28test_for_loop_range_variable
FN:84,_RNvNtCshskMjqXiM1U_4tuff18tests_control_flows_29test_for_loop_expression_body
FN:125,_RNvNtCshskMjqXiM1U_4tuff18tests_control_flows_29test_let_range_literal_stored
FN:294,_RNvNtCshskMjqXiM1U_4tuff18tests_control_flows_29test_yield_inside_else_branch
FN:288,_RNvNtCshskMjqXiM1U_4tuff18tests_control_flows_29test_yield_inside_if_in_block
FN:135,_RNvNtCshskMjqXiM1U_4tuff18tests_control_flows_30test_let_range_shadowed_by_int
FN:147,_RNvNtCshskMjqXiM1U_4tuff18tests_control_flows_30test_match_basic_hit_first_arm
FN:360,_RNvNtCshskMjqXiM1U_4tuff18tests_control_flows_31test_return_break_in_term_chain
FN:277,_RNvNtCshskMjqXiM1U_4tuff18tests_control_flows_32test_fn_param_rejects_wider_type
FN:27,_RNvNtCshskMjqXiM1U_4tuff18tests_control_flows_34test_compound_add_immutable_errors
FN:260,_RNvNtCshskMjqXiM1U_4tuff18tests_control_flows_34test_fn_bool_param_rejects_int_arg
FN:95,_RNvNtCshskMjqXiM1U_4tuff18tests_control_flows_34test_for_missing_in_keyword_errors
FN:90,_RNvNtCshskMjqXiM1U_4tuff18tests_control_flows_34test_for_missing_open_paren_errors
FN:242,_RNvNtCshskMjqXiM1U_4tuff18tests_control_flows_35test_fn_return_type_mismatch_errors
FN:224,_RNvNtCshskMjqXiM1U_4tuff18tests_control_flows_35test_fn_with_return_type_annotation
FN:105,_RNvNtCshskMjqXiM1U_4tuff18tests_control_flows_35test_for_missing_close_paren_errors
FN:13,_RNvNtCshskMjqXiM1U_4tuff18tests_control_flows_35test_if_block_else_single_statement
FN:354,_RNvNtCshskMjqXiM1U_4tuff18tests_control_flows_35test_return_break_in_additive_chain
FN:155,_RNvNtCshskMjqXiM1U_4tuff18tests_control_flows_36test_match_falls_through_to_wildcard
FN:186,_RNvNtCshskMjqXiM1U_4tuff18tests_control_flows_36test_match_missing_open_brace_errors
FN:176,_RNvNtCshskMjqXiM1U_4tuff18tests_control_flows_36test_match_missing_open_paren_errors
FN:163,_RNvNtCshskMjqXiM1U_4tuff18tests_control_flows_36test_match_multiple_arms_hits_second
FN:78,_RNvNtCshskMjqXiM1U_4tuff18tests_control_flows_37test_for_loop_max_iterations_exceeded
FN:201,_RNvNtCshskMjqXiM1U_4tuff18tests_control_flows_37test_match_missing_close_brace_errors
FN:181,_RNvNtCshskMjqXiM1U_4tuff18tests_control_flows_37test_match_missing_close_paren_errors
FN:366,_RNvNtCshskMjqXiM1U_4tuff18tests_control_flows_37test_return_skip_loop_in_factor_block
FN:100,_RNvNtCshskMjqXiM1U_4tuff18tests_control_flows_38test_for_missing_range_operator_errors
FN:247,_RNvNtCshskMjqXiM1U_4tuff18tests_control_flows_38test_let_with_fn_call_narrower_type_ok
FN:388,_RNvNtCshskMjqXiM1U_4tuff18tests_control_flows_38test_return_skip_loop_in_if_body_block
FN:265,_RNvNtCshskMjqXiM1U_4tuff18tests_control_flows_39test_fn_untyped_param_accepts_plain_int
FN:271,_RNvNtCshskMjqXiM1U_4tuff18tests_control_flows_39test_fn_untyped_param_accepts_typed_arg
FN:196,_RNvNtCshskMjqXiM1U_4tuff18tests_control_flows_39test_match_missing_arrow_in_case_errors
FN:171,_RNvNtCshskMjqXiM1U_4tuff18tests_control_flows_39test_match_no_wildcard_unmatched_errors
FN:38,_RNvNtCshskMjqXiM1U_4tuff18tests_control_flows_39test_while_loop_max_iterations_exceeded
FN:237,_RNvNtCshskMjqXiM1U_4tuff18tests_control_flows_40test_fn_return_type_missing_token_errors
FN:206,_RNvNtCshskMjqXiM1U_4tuff18tests_control_flows_40test_match_wildcard_missing_arrow_errors
FN:382,_RNvNtCshskMjqXiM1U_4tuff18tests_control_flows_40test_return_at_eof_with_no_closing_brace
FN:300,_RNvNtCshskMjqXiM1U_4tuff18tests_control_flows_41test_return_in_nested_block_terminates_fn
FN:53,_RNvNtCshskMjqXiM1U_4tuff18tests_control_flows_41test_while_non_assignment_expression_body
FN:345,_RNvNtCshskMjqXiM1U_4tuff18tests_control_flows_42test_multiple_fn_calls_clear_returned_flag
FN:327,_RNvNtCshskMjqXiM1U_4tuff18tests_control_flows_42test_return_in_if_body_block_terminates_fn
FN:141,_RNvNtCshskMjqXiM1U_4tuff18tests_control_flows_43test_for_loop_int_variable_not_range_errors
FN:119,_RNvNtCshskMjqXiM1U_4tuff18tests_control_flows_43test_for_loop_range_variable_max_iterations
FN:318,_RNvNtCshskMjqXiM1U_4tuff18tests_control_flows_43test_return_in_block_expression_subtraction
FN:255,_RNvNtCshskMjqXiM1U_4tuff18tests_control_flows_46test_let_with_fn_call_wider_return_type_errors
FN:336,_RNvNtCshskMjqXiM1U_4tuff18tests_control_flows_46test_return_in_if_body_non_block_terminates_fn
FN:309,_RNvNtCshskMjqXiM1U_4tuff18tests_control_flows_48test_yield_in_nested_block_does_not_terminate_fn
FN:191,_RNvNtCshskMjqXiM1U_4tuff18tests_control_flows_51test_match_missing_arrow_in_non_wildcard_arm_errors
FN:372,_RNvNtCshskMjqXiM1U_4tuff18tests_control_flows_58test_yield_leaves_trailing_tokens_unconsumed_in_block_expr
FNDA:1,_RNvNtCshskMjqXiM1U_4tuff18tests_control_flows_19test_for_loop_basic
FNDA:1,_RNvNtCshskMjqXiM1U_4tuff18tests_control_flows_19test_yield_in_block
FNDA:1,_RNvNtCshskMjqXiM1U_4tuff18tests_control_flows_21test_while_block_body
FNDA:1,_RNvNtCshskMjqXiM1U_4tuff18tests_control_flows_21test_while_loop_basic
FNDA:1,_RNvNtCshskMjqXiM1U_4tuff18tests_control_flows_22test_fn_with_one_param
FNDA:1,_RNvNtCshskMjqXiM1U_4tuff18tests_control_flows_23test_fn_define_and_call
FNDA:1,_RNvNtCshskMjqXiM1U_4tuff18tests_control_flows_24test_for_loop_block_body
FNDA:1,_RNvNtCshskMjqXiM1U_4tuff18tests_control_flows_24test_if_else_with_blocks
FNDA:1,_RNvNtCshskMjqXiM1U_4tuff18tests_control_flows_28test_compound_add_assignment
FNDA:1,_RNvNtCshskMjqXiM1U_4tuff18tests_control_flows_28test_fn_with_params_and_args
FNDA:1,_RNvNtCshskMjqXiM1U_4tuff18tests_control_flows_28test_for_loop_range_variable
FNDA:1,_RNvNtCshskMjqXiM1U_4tuff18tests_control_flows_29test_for_loop_expression_body
FNDA:1,_RNvNtCshskMjqXiM1U_4tuff18tests_control_flows_29test_let_range_literal_stored
FNDA:1,_RNvNtCshskMjqXiM1U_4tuff18tests_control_flows_29test_yield_inside_else_branch
FNDA:1,_RNvNtCshskMjqXiM1U_4tuff18tests_control_flows_29test_yield_inside_if_in_block
FNDA:1,_RNvNtCshskMjqXiM1U_4tuff18tests_control_flows_30test_let_range_shadowed_by_int
FNDA:1,_RNvNtCshskMjqXiM1U_4tuff18tests_control_flows_30test_match_basic_hit_first_arm
FNDA:1,_RNvNtCshskMjqXiM1U_4tuff18tests_control_flows_31test_return_break_in_term_chain
FNDA:1,_RNvNtCshskMjqXiM1U_4tuff18tests_control_flows_32test_fn_param_rejects_wider_type
FNDA:1,_RNvNtCshskMjqXiM1U_4tuff18tests_control_flows_34test_compound_add_immutable_errors
FNDA:1,_RNvNtCshskMjqXiM1U_4tuff18tests_control_flows_34test_fn_bool_param_rejects_int_arg
FNDA:1,_RNvNtCshskMjqXiM1U_4tuff18tests_control_flows_34test_for_missing_in_keyword_errors
FNDA:1,_RNvNtCshskMjqXiM1U_4tuff18tests_control_flows_34test_for_missing_open_paren_errors
FNDA:1,_RNvNtCshskMjqXiM1U_4tuff18tests_control_flows_35test_fn_return_type_mismatch_errors
FNDA:1,_RNvNtCshskMjqXiM1U_4tuff18tests_control_flows_35test_fn_with_return_type_annotation
FNDA:1,_RNvNtCshskMjqXiM1U_4tuff18tests_control_flows_35test_for_missing_close_paren_errors
FNDA:1,_RNvNtCshskMjqXiM1U_4tuff18tests_control_flows_35test_if_block_else_single_statement
FNDA:1,_RNvNtCshskMjqXiM1U_4tuff18tests_control_flows_35test_return_break_in_additive_chain
FNDA:1,_RNvNtCshskMjqXiM1U_4tuff18tests_control_flows_36test_match_falls_through_to_wildcard
FNDA:1,_RNvNtCshskMjqXiM1U_4tuff18tests_control_flows_36test_match_missing_open_brace_errors
FNDA:1,_RNvNtCshskMjqXiM1U_4tuff18tests_control_flows_36test_match_missing_open_paren_errors
FNDA:1,_RNvNtCshskMjqXiM1U_4tuff18tests_control_flows_36test_match_multiple_arms_hits_second
FNDA:1,_RNvNtCshskMjqXiM1U_4tuff18tests_control_flows_37test_for_loop_max_iterations_exceeded
FNDA:1,_RNvNtCshskMjqXiM1U_4tuff18tests_control_flows_37test_match_missing_close_brace_errors
FNDA:1,_RNvNtCshskMjqXiM1U_4tuff18tests_control_flows_37test_match_missing_close_paren_errors
FNDA:1,_RNvNtCshskMjqXiM1U_4tuff18tests_control_flows_37test_return_skip_loop_in_factor_block
FNDA:1,_RNvNtCshskMjqXiM1U_4tuff18tests_control_flows_38test_for_missing_range_operator_errors
FNDA:1,_RNvNtCshskMjqXiM1U_4tuff18tests_control_flows_38test_let_with_fn_call_narrower_type_ok
FNDA:1,_RNvNtCshskMjqXiM1U_4tuff18tests_control_flows_38test_return_skip_loop_in_if_body_block
FNDA:1,_RNvNtCshskMjqXiM1U_4tuff18tests_control_flows_39test_fn_untyped_param_accepts_plain_int
FNDA:1,_RNvNtCshskMjqXiM1U_4tuff18tests_control_flows_39test_fn_untyped_param_accepts_typed_arg
FNDA:1,_RNvNtCshskMjqXiM1U_4tuff18tests_control_flows_39test_match_missing_arrow_in_case_errors
FNDA:1,_RNvNtCshskMjqXiM1U_4tuff18tests_control_flows_39test_match_no_wildcard_unmatched_errors
FNDA:1,_RNvNtCshskMjqXiM1U_4tuff18tests_control_flows_39test_while_loop_max_iterations_exceeded
FNDA:1,_RNvNtCshskMjqXiM1U_4tuff18tests_control_flows_40test_fn_return_type_missing_token_errors
FNDA:1,_RNvNtCshskMjqXiM1U_4tuff18tests_control_flows_40test_match_wildcard_missing_arrow_errors
FNDA:1,_RNvNtCshskMjqXiM1U_4tuff18tests_control_flows_40test_return_at_eof_with_no_closing_brace
FNDA:1,_RNvNtCshskMjqXiM1U_4tuff18tests_control_flows_41test_return_in_nested_block_terminates_fn
FNDA:1,_RNvNtCshskMjqXiM1U_4tuff18tests_control_flows_41test_while_non_assignment_expression_body
FNDA:1,_RNvNtCshskMjqXiM1U_4tuff18tests_control_flows_42test_multiple_fn_calls_clear_returned_flag
FNDA:1,_RNvNtCshskMjqXiM1U_4tuff18tests_control_flows_42test_return_in_if_body_block_terminates_fn
FNDA:1,_RNvNtCshskMjqXiM1U_4tuff18tests_control_flows_43test_for_loop_int_variable_not_range_errors
FNDA:1,_RNvNtCshskMjqXiM1U_4tuff18tests_control_flows_43test_for_loop_range_variable_max_iterations
FNDA:1,_RNvNtCshskMjqXiM1U_4tuff18tests_control_flows_43test_return_in_block_expression_subtraction
FNDA:1,_RNvNtCshskMjqXiM1U_4tuff18tests_control_flows_46test_let_with_fn_call_wider_return_type_errors
FNDA:1,_RNvNtCshskMjqXiM1U_4tuff18tests_control_flows_46test_return_in_if_body_non_block_terminates_fn
FNDA:1,_RNvNtCshskMjqXiM1U_4tuff18tests_control_flows_48test_yield_in_nested_block_does_not_terminate_fn
FNDA:1,_RNvNtCshskMjqXiM1U_4tuff18tests_control_flows_51test_match_missing_arrow_in_non_wildcard_arm_errors
FNDA:1,_RNvNtCshskMjqXiM1U_4tuff18tests_control_flows_58test_yield_leaves_trailing_tokens_unconsumed_in_block_expr
FNF:59
FNH:59
DA:4,1
DA:6,1
DA:7,1
DA:10,1
DA:13,1
DA:15,1
DA:16,1
DA:19,1
DA:22,1
DA:23,1
DA:24,1
DA:27,1
DA:29,1
DA:30,1
DA:33,1
DA:34,1
DA:35,1
DA:38,1
DA:40,1
DA:41,1
DA:44,1
DA:46,1
DA:47,1
DA:50,1
DA:53,1
DA:57,1
DA:58,1
DA:61,1
DA:62,1
DA:63,1
DA:66,1
DA:69,1
DA:71,1
DA:72,1
DA:75,1
DA:78,1
DA:80,1
DA:81,1
DA:84,1
DA:86,1
DA:87,1
DA:90,1
DA:91,1
DA:92,1
DA:95,1
DA:96,1
DA:97,1
DA:100,1
DA:101,1
DA:102,1
DA:105,1
DA:106,1
DA:107,1
DA:110,1
DA:112,1
DA:113,1
DA:116,1
DA:119,1
DA:121,1
DA:122,1
DA:125,1
DA:128,1
DA:129,1
DA:132,1
DA:135,1
DA:137,1
DA:138,1
DA:141,1
DA:143,1
DA:144,1
DA:147,1
DA:148,1
DA:149,1
DA:152,1
DA:155,1
DA:156,1
DA:157,1
DA:160,1
DA:163,1
DA:164,1
DA:165,1
DA:168,1
DA:171,1
DA:172,1
DA:173,1
DA:176,1
DA:177,1
DA:178,1
DA:181,1
DA:182,1
DA:183,1
DA:186,1
DA:187,1
DA:188,1
DA:191,1
DA:192,1
DA:193,1
DA:196,1
DA:197,1
DA:198,1
DA:201,1
DA:202,1
DA:203,1
DA:206,1
DA:207,1
DA:208,1
DA:211,1
DA:212,1
DA:213,1
DA:216,1
DA:217,1
DA:218,1
DA:221,1
DA:224,1
DA:225,1
DA:226,1
DA:229,1
DA:232,1
DA:233,1
DA:234,1
DA:237,1
DA:238,1
DA:239,1
DA:242,1
DA:243,1
DA:244,1
DA:247,1
DA:248,1
DA:249,1
DA:252,1
DA:255,1
DA:256,1
DA:257,1
DA:260,1
DA:261,1
DA:262,1
DA:265,1
DA:267,1
DA:268,1
DA:271,1
DA:273,1
DA:274,1
DA:277,1
DA:279,1
DA:280,1
DA:283,1
DA:284,1
DA:285,1
DA:288,1
DA:290,1
DA:291,1
DA:294,1
DA:296,1
DA:297,1
DA:300,1
DA:302,1
DA:303,1
DA:306,1
DA:309,1
DA:311,1
DA:312,1
DA:315,1
DA:318,1
DA:320,1
DA:321,1
DA:324,1
DA:327,1
DA:329,1
DA:330,1
DA:333,1
DA:336,1
DA:338,1
DA:339,1
DA:342,1
DA:345,1
DA:347,1
DA:348,1
DA:351,1
DA:354,1
DA:356,1
DA:357,1
DA:360,1
DA:362,1
DA:363,1
DA:366,1
DA:368,1
DA:369,1
DA:372,1
DA:375,1
DA:376,1
DA:377,1
DA:379,1
DA:382,1
DA:384,1
DA:385,1
DA:388,1
DA:390,1
DA:391,1
DA:394,1
BRF:0
BRH:0
LF:199
LH:199
end_of_record
SF:C:\Users\mathm\Documents\Projects\Tuff\src\tests_literals.rs
FN:227,_RNvNtCshskMjqXiM1U_4tuff14tests_literalss_17test_empty_parens
FN:4,_RNvNtCshskMjqXiM1U_4tuff14tests_literalss_17test_empty_string
FN:14,_RNvNtCshskMjqXiM1U_4tuff14tests_literalss_17test_single_digit
FN:406,_RNvNtCshskMjqXiM1U_4tuff14tests_literalss_18test_if_block_body
FN:424,_RNvNtCshskMjqXiM1U_4tuff14tests_literalss_19test_array_indexing
FN:9,_RNvNtCshskMjqXiM1U_4tuff14tests_literalss_20test_whitespace_only
FN:182,_RNvNtCshskMjqXiM1U_4tuff14tests_literalss_21test_chained_addition
FN:19,_RNvNtCshskMjqXiM1U_4tuff14tests_literalss_21test_single_digit_two
FN:247,_RNvNtCshskMjqXiM1U_4tuff14tests_literalss_22test_braced_expression
FN:242,_RNvNtCshskMjqXiM1U_4tuff14tests_literalss_22test_modulo_expression
FN:177,_RNvNtCshskMjqXiM1U_4tuff14tests_literalss_22test_negative_addition
FN:207,_RNvNtCshskMjqXiM1U_4tuff14tests_literalss_23test_division_truncates
FN:187,_RNvNtCshskMjqXiM1U_4tuff14tests_literalss_23test_mixed_add_subtract
FN:197,_RNvNtCshskMjqXiM1U_4tuff14tests_literalss_23test_mixed_mul_subtract
FN:162,_RNvNtCshskMjqXiM1U_4tuff14tests_literalss_24test_addition_expression
FN:237,_RNvNtCshskMjqXiM1U_4tuff14tests_literalss_24test_division_expression
FN:287,_RNvNtCshskMjqXiM1U_4tuff14tests_literalss_24test_top_level_semicolon
FN:370,_RNvNtCshskMjqXiM1U_4tuff14tests_literalss_25test_less_than_comparison
FN:252,_RNvNtCshskMjqXiM1U_4tuff14tests_literalss_25test_let_binding_in_block
FN:305,_RNvNtCshskMjqXiM1U_4tuff14tests_literalss_25test_mut_and_reassignment
FN:74,_RNvNtCshskMjqXiM1U_4tuff14tests_literalss_26test_is_type_check_bool_ok
FN:375,_RNvNtCshskMjqXiM1U_4tuff14tests_literalss_26test_less_equal_comparison
FN:299,_RNvNtCshskMjqXiM1U_4tuff14tests_literalss_26test_let_only_returns_zero
FN:339,_RNvNtCshskMjqXiM1U_4tuff14tests_literalss_26test_logical_and_both_true
FN:334,_RNvNtCshskMjqXiM1U_4tuff14tests_literalss_26test_logical_or_both_false
FN:217,_RNvNtCshskMjqXiM1U_4tuff14tests_literalss_26test_trailing_add_operator
FN:212,_RNvNtCshskMjqXiM1U_4tuff14tests_literalss_26test_trailing_mul_operator
FN:390,_RNvNtCshskMjqXiM1U_4tuff14tests_literalss_27test_if_else_in_let_binding
FN:172,_RNvNtCshskMjqXiM1U_4tuff14tests_literalss_28test_parse_error_returns_err
FN:202,_RNvNtCshskMjqXiM1U_4tuff14tests_literalss_28test_precedence_add_then_mul
FN:432,_RNvNtCshskMjqXiM1U_4tuff14tests_literalss_29test_array_literal_expression
FN:316,_RNvNtCshskMjqXiM1U_4tuff14tests_literalss_29test_boolean_true_returns_one
FN:69,_RNvNtCshskMjqXiM1U_4tuff14tests_literalss_29test_is_type_check_literal_ok
FN:54,_RNvNtCshskMjqXiM1U_4tuff14tests_literalss_29test_let_type_mismatch_errors
FN:44,_RNvNtCshskMjqXiM1U_4tuff14tests_literalss_29test_let_with_type_annotation
FN:326,_RNvNtCshskMjqXiM1U_4tuff14tests_literalss_29test_logical_or_with_booleans
FN:222,_RNvNtCshskMjqXiM1U_4tuff14tests_literalss_29test_parenthesized_expression
FN:269,_RNvNtCshskMjqXiM1U_4tuff14tests_literalss_30test_let_without_equals_errors
FN:344,_RNvNtCshskMjqXiM1U_4tuff14tests_literalss_30test_logical_and_with_booleans
FN:192,_RNvNtCshskMjqXiM1U_4tuff14tests_literalss_30test_multiplication_expression
FN:293,_RNvNtCshskMjqXiM1U_4tuff14tests_literalss_30test_reassign_immutable_errors
FN:257,_RNvNtCshskMjqXiM1U_4tuff14tests_literalss_30test_unrecognized_char_skipped
FN:321,_RNvNtCshskMjqXiM1U_4tuff14tests_literalss_31test_boolean_false_returns_zero
FN:380,_RNvNtCshskMjqXiM1U_4tuff14tests_literalss_31test_greater_than_or_equal_true
FN:104,_RNvNtCshskMjqXiM1U_4tuff14tests_literalss_31test_is_type_check_plain_int_ok
FN:352,_RNvNtCshskMjqXiM1U_4tuff14tests_literalss_31test_reassign_in_block_persists
FN:29,_RNvNtCshskMjqXiM1U_4tuff14tests_literalss_32test_integer_u16_suffix_stripped
FN:358,_RNvNtCshskMjqXiM1U_4tuff14tests_literalss_32test_let_shadowing_allows_rebind
FN:49,_RNvNtCshskMjqXiM1U_4tuff14tests_literalss_32test_let_type_compat_u16_from_u8
FN:263,_RNvNtCshskMjqXiM1U_4tuff14tests_literalss_32test_let_without_var_name_errors
FN:398,_RNvNtCshskMjqXiM1U_4tuff14tests_literalss_33test_if_statement_with_assignment
FN:34,_RNvNtCshskMjqXiM1U_4tuff14tests_literalss_33test_integer_single_letter_suffix
FN:114,_RNvNtCshskMjqXiM1U_4tuff14tests_literalss_33test_is_type_check_paren_expr_i16
FN:137,_RNvNtCshskMjqXiM1U_4tuff14tests_literalss_33test_let_untyped_plain_literal_ok
FN:232,_RNvNtCshskMjqXiM1U_4tuff14tests_literalss_33test_unrecognized_token_in_factor
FN:385,_RNvNtCshskMjqXiM1U_4tuff14tests_literalss_34test_comparison_false_returns_zero
FN:89,_RNvNtCshskMjqXiM1U_4tuff14tests_literalss_34test_is_type_check_var_u8_is_u8_ok
FN:152,_RNvNtCshskMjqXiM1U_4tuff14tests_literalss_34test_let_single_letter_type_suffix
FN:274,_RNvNtCshskMjqXiM1U_4tuff14tests_literalss_34test_standalone_semicolon_in_block
FN:437,_RNvNtCshskMjqXiM1U_4tuff14tests_literalss_35test_array_empty_literal_expression
FN:147,_RNvNtCshskMjqXiM1U_4tuff14tests_literalss_35test_let_typed_with_no_rhs_token_ok
FN:167,_RNvNtCshskMjqXiM1U_4tuff14tests_literalss_35test_undefined_variable_returns_err
FN:447,_RNvNtCshskMjqXiM1U_4tuff14tests_literalss_36test_array_indexing_non_array_errors
FN:39,_RNvNtCshskMjqXiM1U_4tuff14tests_literalss_36test_integer_lowercase_suffix_errors
FN:279,_RNvNtCshskMjqXiM1U_4tuff14tests_literalss_36test_top_level_let_with_nested_block
FN:310,_RNvNtCshskMjqXiM1U_4tuff14tests_literalss_37test_assignment_in_expression_context
FN:109,_RNvNtCshskMjqXiM1U_4tuff14tests_literalss_37test_is_type_check_paren_expr_widened
FN:24,_RNvNtCshskMjqXiM1U_4tuff14tests_literalss_38test_integer_uppercase_suffix_stripped
FN:99,_RNvNtCshskMjqXiM1U_4tuff14tests_literalss_38test_is_type_check_literal_narrow_fail
FN:79,_RNvNtCshskMjqXiM1U_4tuff14tests_literalss_38test_is_type_check_var_bool_is_bool_ok
FN:94,_RNvNtCshskMjqXiM1U_4tuff14tests_literalss_38test_is_type_check_var_u16_not_u8_fail
FN:364,_RNvNtCshskMjqXiM1U_4tuff14tests_literalss_39test_block_shadow_does_not_affect_outer
FN:84,_RNvNtCshskMjqXiM1U_4tuff14tests_literalss_39test_is_type_check_var_bool_not_u8_fail
FN:442,_RNvNtCshskMjqXiM1U_4tuff14tests_literalss_40test_array_indexing_out_of_bounds_errors
FN:415,_RNvNtCshskMjqXiM1U_4tuff14tests_literalss_40test_if_block_without_trailing_semicolon
FN:64,_RNvNtCshskMjqXiM1U_4tuff14tests_literalss_40test_let_bool_var_to_u8_typed_var_errors
FN:157,_RNvNtCshskMjqXiM1U_4tuff14tests_literalss_40test_let_missing_type_after_colon_errors
FN:132,_RNvNtCshskMjqXiM1U_4tuff14tests_literalss_40test_let_untyped_with_suffix_infers_type
FN:457,_RNvNtCshskMjqXiM1U_4tuff14tests_literalss_41test_array_literal_missing_bracket_errors
FN:452,_RNvNtCshskMjqXiM1U_4tuff14tests_literalss_42test_array_indexing_missing_bracket_errors
FN:119,_RNvNtCshskMjqXiM1U_4tuff14tests_literalss_42test_is_type_check_wider_than_target_false
FN:124,_RNvNtCshskMjqXiM1U_4tuff14tests_literalss_42test_let_assign_u8_var_to_u16_typed_var_ok
FN:142,_RNvNtCshskMjqXiM1U_4tuff14tests_literalss_42test_let_plain_literal_to_typed_var_errors
FN:59,_RNvNtCshskMjqXiM1U_4tuff14tests_literalss_46test_let_assign_u16_var_to_u8_typed_var_errors
FNDA:1,_RNvNtCshskMjqXiM1U_4tuff14tests_literalss_17test_empty_parens
FNDA:1,_RNvNtCshskMjqXiM1U_4tuff14tests_literalss_17test_empty_string
FNDA:1,_RNvNtCshskMjqXiM1U_4tuff14tests_literalss_17test_single_digit
FNDA:1,_RNvNtCshskMjqXiM1U_4tuff14tests_literalss_18test_if_block_body
FNDA:1,_RNvNtCshskMjqXiM1U_4tuff14tests_literalss_19test_array_indexing
FNDA:1,_RNvNtCshskMjqXiM1U_4tuff14tests_literalss_20test_whitespace_only
FNDA:1,_RNvNtCshskMjqXiM1U_4tuff14tests_literalss_21test_chained_addition
FNDA:1,_RNvNtCshskMjqXiM1U_4tuff14tests_literalss_21test_single_digit_two
FNDA:1,_RNvNtCshskMjqXiM1U_4tuff14tests_literalss_22test_braced_expression
FNDA:1,_RNvNtCshskMjqXiM1U_4tuff14tests_literalss_22test_modulo_expression
FNDA:1,_RNvNtCshskMjqXiM1U_4tuff14tests_literalss_22test_negative_addition
FNDA:1,_RNvNtCshskMjqXiM1U_4tuff14tests_literalss_23test_division_truncates
FNDA:1,_RNvNtCshskMjqXiM1U_4tuff14tests_literalss_23test_mixed_add_subtract
FNDA:1,_RNvNtCshskMjqXiM1U_4tuff14tests_literalss_23test_mixed_mul_subtract
FNDA:1,_RNvNtCshskMjqXiM1U_4tuff14tests_literalss_24test_addition_expression
FNDA:1,_RNvNtCshskMjqXiM1U_4tuff14tests_literalss_24test_division_expression
FNDA:1,_RNvNtCshskMjqXiM1U_4tuff14tests_literalss_24test_top_level_semicolon
FNDA:1,_RNvNtCshskMjqXiM1U_4tuff14tests_literalss_25test_less_than_comparison
FNDA:1,_RNvNtCshskMjqXiM1U_4tuff14tests_literalss_25test_let_binding_in_block
FNDA:1,_RNvNtCshskMjqXiM1U_4tuff14tests_literalss_25test_mut_and_reassignment
FNDA:1,_RNvNtCshskMjqXiM1U_4tuff14tests_literalss_26test_is_type_check_bool_ok
FNDA:1,_RNvNtCshskMjqXiM1U_4tuff14tests_literalss_26test_less_equal_comparison
FNDA:1,_RNvNtCshskMjqXiM1U_4tuff14tests_literalss_26test_let_only_returns_zero
FNDA:1,_RNvNtCshskMjqXiM1U_4tuff14tests_literalss_26test_logical_and_both_true
FNDA:1,_RNvNtCshskMjqXiM1U_4tuff14tests_literalss_26test_logical_or_both_false
FNDA:1,_RNvNtCshskMjqXiM1U_4tuff14tests_literalss_26test_trailing_add_operator
FNDA:1,_RNvNtCshskMjqXiM1U_4tuff14tests_literalss_26test_trailing_mul_operator
FNDA:1,_RNvNtCshskMjqXiM1U_4tuff14tests_literalss_27test_if_else_in_let_binding
FNDA:1,_RNvNtCshskMjqXiM1U_4tuff14tests_literalss_28test_parse_error_returns_err
FNDA:1,_RNvNtCshskMjqXiM1U_4tuff14tests_literalss_28test_precedence_add_then_mul
FNDA:1,_RNvNtCshskMjqXiM1U_4tuff14tests_literalss_29test_array_literal_expression
FNDA:1,_RNvNtCshskMjqXiM1U_4tuff14tests_literalss_29test_boolean_true_returns_one
FNDA:1,_RNvNtCshskMjqXiM1U_4tuff14tests_literalss_29test_is_type_check_literal_ok
FNDA:1,_RNvNtCshskMjqXiM1U_4tuff14tests_literalss_29test_let_type_mismatch_errors
FNDA:1,_RNvNtCshskMjqXiM1U_4tuff14tests_literalss_29test_let_with_type_annotation
FNDA:1,_RNvNtCshskMjqXiM1U_4tuff14tests_literalss_29test_logical_or_with_booleans
FNDA:1,_RNvNtCshskMjqXiM1U_4tuff14tests_literalss_29test_parenthesized_expression
FNDA:1,_RNvNtCshskMjqXiM1U_4tuff14tests_literalss_30test_let_without_equals_errors
FNDA:1,_RNvNtCshskMjqXiM1U_4tuff14tests_literalss_30test_logical_and_with_booleans
FNDA:1,_RNvNtCshskMjqXiM1U_4tuff14tests_literalss_30test_multiplication_expression
FNDA:1,_RNvNtCshskMjqXiM1U_4tuff14tests_literalss_30test_reassign_immutable_errors
FNDA:1,_RNvNtCshskMjqXiM1U_4tuff14tests_literalss_30test_unrecognized_char_skipped
FNDA:1,_RNvNtCshskMjqXiM1U_4tuff14tests_literalss_31test_boolean_false_returns_zero
FNDA:1,_RNvNtCshskMjqXiM1U_4tuff14tests_literalss_31test_greater_than_or_equal_true
FNDA:1,_RNvNtCshskMjqXiM1U_4tuff14tests_literalss_31test_is_type_check_plain_int_ok
FNDA:1,_RNvNtCshskMjqXiM1U_4tuff14tests_literalss_31test_reassign_in_block_persists
FNDA:1,_RNvNtCshskMjqXiM1U_4tuff14tests_literalss_32test_integer_u16_suffix_stripped
FNDA:1,_RNvNtCshskMjqXiM1U_4tuff14tests_literalss_32test_let_shadowing_allows_rebind
FNDA:1,_RNvNtCshskMjqXiM1U_4tuff14tests_literalss_32test_let_type_compat_u16_from_u8
FNDA:1,_RNvNtCshskMjqXiM1U_4tuff14tests_literalss_32test_let_without_var_name_errors
FNDA:1,_RNvNtCshskMjqXiM1U_4tuff14tests_literalss_33test_if_statement_with_assignment
FNDA:1,_RNvNtCshskMjqXiM1U_4tuff14tests_literalss_33test_integer_single_letter_suffix
FNDA:1,_RNvNtCshskMjqXiM1U_4tuff14tests_literalss_33test_is_type_check_paren_expr_i16
FNDA:1,_RNvNtCshskMjqXiM1U_4tuff14tests_literalss_33test_let_untyped_plain_literal_ok
FNDA:1,_RNvNtCshskMjqXiM1U_4tuff14tests_literalss_33test_unrecognized_token_in_factor
FNDA:1,_RNvNtCshskMjqXiM1U_4tuff14tests_literalss_34test_comparison_false_returns_zero
FNDA:1,_RNvNtCshskMjqXiM1U_4tuff14tests_literalss_34test_is_type_check_var_u8_is_u8_ok
FNDA:1,_RNvNtCshskMjqXiM1U_4tuff14tests_literalss_34test_let_single_letter_type_suffix
FNDA:1,_RNvNtCshskMjqXiM1U_4tuff14tests_literalss_34test_standalone_semicolon_in_block
FNDA:1,_RNvNtCshskMjqXiM1U_4tuff14tests_literalss_35test_array_empty_literal_expression
FNDA:1,_RNvNtCshskMjqXiM1U_4tuff14tests_literalss_35test_let_typed_with_no_rhs_token_ok
FNDA:1,_RNvNtCshskMjqXiM1U_4tuff14tests_literalss_35test_undefined_variable_returns_err
FNDA:1,_RNvNtCshskMjqXiM1U_4tuff14tests_literalss_36test_array_indexing_non_array_errors
FNDA:1,_RNvNtCshskMjqXiM1U_4tuff14tests_literalss_36test_integer_lowercase_suffix_errors
FNDA:1,_RNvNtCshskMjqXiM1U_4tuff14tests_literalss_36test_top_level_let_with_nested_block
FNDA:1,_RNvNtCshskMjqXiM1U_4tuff14tests_literalss_37test_assignment_in_expression_context
FNDA:1,_RNvNtCshskMjqXiM1U_4tuff14tests_literalss_37test_is_type_check_paren_expr_widened
FNDA:1,_RNvNtCshskMjqXiM1U_4tuff14tests_literalss_38test_integer_uppercase_suffix_stripped
FNDA:1,_RNvNtCshskMjqXiM1U_4tuff14tests_literalss_38test_is_type_check_literal_narrow_fail
FNDA:1,_RNvNtCshskMjqXiM1U_4tuff14tests_literalss_38test_is_type_check_var_bool_is_bool_ok
FNDA:1,_RNvNtCshskMjqXiM1U_4tuff14tests_literalss_38test_is_type_check_var_u16_not_u8_fail
FNDA:1,_RNvNtCshskMjqXiM1U_4tuff14tests_literalss_39test_block_shadow_does_not_affect_outer
FNDA:1,_RNvNtCshskMjqXiM1U_4tuff14tests_literalss_39test_is_type_check_var_bool_not_u8_fail
FNDA:1,_RNvNtCshskMjqXiM1U_4tuff14tests_literalss_40test_array_indexing_out_of_bounds_errors
FNDA:1,_RNvNtCshskMjqXiM1U_4tuff14tests_literalss_40test_if_block_without_trailing_semicolon
FNDA:1,_RNvNtCshskMjqXiM1U_4tuff14tests_literalss_40test_let_bool_var_to_u8_typed_var_errors
FNDA:1,_RNvNtCshskMjqXiM1U_4tuff14tests_literalss_40test_let_missing_type_after_colon_errors
FNDA:1,_RNvNtCshskMjqXiM1U_4tuff14tests_literalss_40test_let_untyped_with_suffix_infers_type
FNDA:1,_RNvNtCshskMjqXiM1U_4tuff14tests_literalss_41test_array_literal_missing_bracket_errors
FNDA:1,_RNvNtCshskMjqXiM1U_4tuff14tests_literalss_42test_array_indexing_missing_bracket_errors
FNDA:1,_RNvNtCshskMjqXiM1U_4tuff14tests_literalss_42test_is_type_check_wider_than_target_false
FNDA:1,_RNvNtCshskMjqXiM1U_4tuff14tests_literalss_42test_let_assign_u8_var_to_u16_typed_var_ok
FNDA:1,_RNvNtCshskMjqXiM1U_4tuff14tests_literalss_42test_let_plain_literal_to_typed_var_errors
FNDA:1,_RNvNtCshskMjqXiM1U_4tuff14tests_literalss_46test_let_assign_u16_var_to_u8_typed_var_errors
FNF:84
FNH:84
DA:4,1
DA:5,1
DA:6,1
DA:9,1
DA:10,1
DA:11,1
DA:14,1
DA:15,1
DA:16,1
DA:19,1
DA:20,1
DA:21,1
DA:24,1
DA:25,1
DA:26,1
DA:29,1
DA:30,1
DA:31,1
DA:34,1
DA:35,1
DA:36,1
DA:39,1
DA:40,1
DA:41,1
DA:44,1
DA:45,1
DA:46,1
DA:49,1
DA:50,1
DA:51,1
DA:54,1
DA:55,1
DA:56,1
DA:59,1
DA:60,1
DA:61,1
DA:64,1
DA:65,1
DA:66,1
DA:69,1
DA:70,1
DA:71,1
DA:74,1
DA:75,1
DA:76,1
DA:79,1
DA:80,1
DA:81,1
DA:84,1
DA:85,1
DA:86,1
DA:89,1
DA:90,1
DA:91,1
DA:94,1
DA:95,1
DA:96,1
DA:99,1
DA:100,1
DA:101,1
DA:104,1
DA:105,1
DA:106,1
DA:109,1
DA:110,1
DA:111,1
DA:114,1
DA:115,1
DA:116,1
DA:119,1
DA:120,1
DA:121,1
DA:124,1
DA:125,1
DA:126,1
DA:129,1
DA:132,1
DA:133,1
DA:134,1
DA:137,1
DA:138,1
DA:139,1
DA:142,1
DA:143,1
DA:144,1
DA:147,1
DA:148,1
DA:149,1
DA:152,1
DA:153,1
DA:154,1
DA:157,1
DA:158,1
DA:159,1
DA:162,1
DA:163,1
DA:164,1
DA:167,1
DA:168,1
DA:169,1
DA:172,1
DA:173,1
DA:174,1
DA:177,1
DA:178,1
DA:179,1
DA:182,1
DA:183,1
DA:184,1
DA:187,1
DA:188,1
DA:189,1
DA:192,1
DA:193,1
DA:194,1
DA:197,1
DA:198,1
DA:199,1
DA:202,1
DA:203,1
DA:204,1
DA:207,1
DA:208,1
DA:209,1
DA:212,1
DA:213,1
DA:214,1
DA:217,1
DA:218,1
DA:219,1
DA:222,1
DA:223,1
DA:224,1
DA:227,1
DA:228,1
DA:229,1
DA:232,1
DA:233,1
DA:234,1
DA:237,1
DA:238,1
DA:239,1
DA:242,1
DA:243,1
DA:244,1
DA:247,1
DA:248,1
DA:249,1
DA:252,1
DA:253,1
DA:254,1
DA:257,1
DA:259,1
DA:260,1
DA:263,1
DA:265,1
DA:266,1
DA:269,1
DA:270,1
DA:271,1
DA:274,1
DA:275,1
DA:276,1
DA:279,1
DA:280,1
DA:281,1
DA:284,1
DA:287,1
DA:289,1
DA:290,1
DA:293,1
DA:295,1
DA:296,1
DA:299,1
DA:301,1
DA:302,1
DA:305,1
DA:306,1
DA:307,1
DA:310,1
DA:312,1
DA:313,1
DA:316,1
DA:317,1
DA:318,1
DA:321,1
DA:322,1
DA:323,1
DA:326,1
DA:327,1
DA:328,1
DA:331,1
DA:334,1
DA:335,1
DA:336,1
DA:339,1
DA:340,1
DA:341,1
DA:344,1
DA:345,1
DA:346,1
DA:349,1
DA:352,1
DA:354,1
DA:355,1
DA:358,1
DA:360,1
DA:361,1
DA:364,1
DA:366,1
DA:367,1
DA:370,1
DA:371,1
DA:372,1
DA:375,1
DA:376,1
DA:377,1
DA:380,1
DA:381,1
DA:382,1
DA:385,1
DA:386,1
DA:387,1
DA:390,1
DA:391,1
DA:392,1
DA:395,1
DA:398,1
DA:399,1
DA:400,1
DA:403,1
DA:406,1
DA:408,1
DA:409,1
DA:412,1
DA:415,1
DA:417,1
DA:418,1
DA:421,1
DA:424,1
DA:425,1
DA:426,1
DA:429,1
DA:432,1
DA:433,1
DA:434,1
DA:437,1
DA:438,1
DA:439,1
DA:442,1
DA:443,1
DA:444,1
DA:447,1
DA:448,1
DA:449,1
DA:452,1
DA:453,1
DA:454,1
DA:457,1
DA:458,1
DA:459,1
BRF:0
BRH:0
LF:261
LH:261
end_of_record